target datalayout = "e-m:e-p270:32:32-p271:32:32-p272:64:64-i64:64-i128:128-f80:128-n8:16:32:64-S128"
target triple = "x86_64-pc-linux-gnu"

%struct.printTableFooter = type { ptr, ptr }
%struct.printTableOpt = type { i32, i16, i32, i32, i16, i16, i32, i8, i8, i8, i8, i64, ptr, %struct.separator, %struct.separator, [2 x i8], i8, ptr, i32, i32, i32, i32, i32, i32 }
%struct.separator = type { ptr, i8 }
%struct.printTableContent = type { ptr, ptr, i32, i32, ptr, ptr, ptr, ptr, i64, ptr, ptr, ptr, ptr, ptr }

@cancel_pressed = dso_local global i32 0, align 4
@.str.5 = private unnamed_addr constant [2 x i8] c" \00", align 1
@.str.6 = private unnamed_addr constant [2 x i8] c".\00", align 1
@.str.38 = private unnamed_addr constant [2 x i8] c"\0A\00", align 1
@.str.56 = private unnamed_addr constant [3 x i8] c" \09\00", align 1
@.str.67 = private unnamed_addr constant [12 x i8] c"[cols=\22h,l\22\00", align 1
@.str.68 = private unnamed_addr constant [26 x i8] c",frame=\22none\22,grid=\22none\22\00", align 1
@.str.69 = private unnamed_addr constant [14 x i8] c",frame=\22none\22\00", align 1
@.str.70 = private unnamed_addr constant [24 x i8] c",frame=\22all\22,grid=\22all\22\00", align 1
@.str.71 = private unnamed_addr constant [3 x i8] c"]\0A\00", align 1
@.str.72 = private unnamed_addr constant [7 x i8] c"|====\0A\00", align 1
@.str.73 = private unnamed_addr constant [16 x i8] c"2+^|Record %lu\0A\00", align 1
@.str.74 = private unnamed_addr constant [5 x i8] c"2+|\0A\00", align 1
@.str.75 = private unnamed_addr constant [4 x i8] c"<l|\00", align 1
@.str.76 = private unnamed_addr constant [5 x i8] c" %s|\00", align 1
@.str.77 = private unnamed_addr constant [3 x i8] c">l\00", align 1
@.str.78 = private unnamed_addr constant [3 x i8] c"<l\00", align 1
@.str.79 = private unnamed_addr constant [7 x i8] c"\0A....\0A\00", align 1
@.str.80 = private unnamed_addr constant [6 x i8] c"....\0A\00", align 1
@.str.81 = private unnamed_addr constant [3 x i8] c"\\|\00", align 1

; Function Attrs: nounwind uwtable
define internal void @asciidoc_escaped_print(ptr noundef %0, ptr noundef %1) #0 {
  %3 = alloca ptr, align 8
  %4 = alloca ptr, align 8
  %5 = alloca ptr, align 8
  store ptr %0, ptr %3, align 8
  store ptr %1, ptr %4, align 8
  call void @llvm.lifetime.start.p0(i64 8, ptr %5) #8
  %6 = load ptr, ptr %3, align 8
  store ptr %6, ptr %5, align 8
  br label %7

7:                                                ; preds = %25, %2
  %8 = load ptr, ptr %5, align 8
  %9 = load i8, ptr %8, align 1
  %10 = icmp ne i8 %9, 0
  br i1 %10, label %11, label %28

11:                                               ; preds = %7
  %12 = load ptr, ptr %5, align 8
  %13 = load i8, ptr %12, align 1
  %14 = sext i8 %13 to i32
  switch i32 %14, label %18 [
    i32 124, label %15
  ]

15:                                               ; preds = %11
  %16 = load ptr, ptr %4, align 8
  %17 = call i32 @fputs(ptr noundef @.str.81, ptr noundef %16)
  br label %24

18:                                               ; preds = %11
  %19 = load ptr, ptr %5, align 8
  %20 = load i8, ptr %19, align 1
  %21 = sext i8 %20 to i32
  %22 = load ptr, ptr %4, align 8
  %23 = call i32 @fputc(i32 noundef %21, ptr noundef %22)
  br label %24

24:                                               ; preds = %18, %15
  br label %25

25:                                               ; preds = %24
  %26 = load ptr, ptr %5, align 8
  %27 = getelementptr inbounds nuw i8, ptr %26, i32 1
  store ptr %27, ptr %5, align 8
  br label %7, !llvm.loop !81

28:                                               ; preds = %7
  call void @llvm.lifetime.end.p0(i64 8, ptr %5) #8
  ret void
}

; Function Attrs: nounwind uwtable
define internal void @print_asciidoc_vertical(ptr noundef %0, ptr noundef %1) #0 {
  %3 = alloca ptr, align 8
  %4 = alloca ptr, align 8
  %5 = alloca i8, align 1
  %6 = alloca i16, align 2
  %7 = alloca i64, align 8
  %8 = alloca i32, align 4
  %9 = alloca ptr, align 8
  %10 = alloca i32, align 4
  %11 = alloca ptr, align 8
  store ptr %0, ptr %3, align 8
  store ptr %1, ptr %4, align 8
  call void @llvm.lifetime.start.p0(i64 1, ptr %5) #8
  %12 = load ptr, ptr %3, align 8
  %13 = getelementptr inbounds nuw %struct.printTableContent, ptr %12, i32 0, i32 0
  %14 = load ptr, ptr %13, align 8
  %15 = getelementptr inbounds nuw %struct.printTableOpt, ptr %14, i32 0, i32 7
  %16 = load i8, ptr %15, align 8, !range !4, !noundef !5
  %17 = trunc i8 %16 to i1
  %18 = zext i1 %17 to i8
  store i8 %18, ptr %5, align 1
  call void @llvm.lifetime.start.p0(i64 2, ptr %6) #8
  %19 = load ptr, ptr %3, align 8
  %20 = getelementptr inbounds nuw %struct.printTableContent, ptr %19, i32 0, i32 0
  %21 = load ptr, ptr %20, align 8
  %22 = getelementptr inbounds nuw %struct.printTableOpt, ptr %21, i32 0, i32 4
  %23 = load i16, ptr %22, align 8
  store i16 %23, ptr %6, align 2
  call void @llvm.lifetime.start.p0(i64 8, ptr %7) #8
  %24 = load ptr, ptr %3, align 8
  %25 = getelementptr inbounds nuw %struct.printTableContent, ptr %24, i32 0, i32 0
  %26 = load ptr, ptr %25, align 8
  %27 = getelementptr inbounds nuw %struct.printTableOpt, ptr %26, i32 0, i32 11
  %28 = load i64, ptr %27, align 8
  %29 = add i64 %28, 1
  store i64 %29, ptr %7, align 8
  call void @llvm.lifetime.start.p0(i64 4, ptr %8) #8
  call void @llvm.lifetime.start.p0(i64 8, ptr %9) #8
  %30 = load volatile i32, ptr @cancel_pressed, align 4
  %31 = icmp ne i32 %30, 0
  br i1 %31, label %32, label %33

32:                                               ; preds = %2
  store i32 1, ptr %10, align 4
  br label %211

33:                                               ; preds = %2
  %34 = load ptr, ptr %3, align 8
  %35 = getelementptr inbounds nuw %struct.printTableContent, ptr %34, i32 0, i32 0
  %36 = load ptr, ptr %35, align 8
  %37 = getelementptr inbounds nuw %struct.printTableOpt, ptr %36, i32 0, i32 8
  %38 = load i8, ptr %37, align 1, !range !4, !noundef !5
  %39 = trunc i8 %38 to i1
  br i1 %39, label %40, label %79

40:                                               ; preds = %33
  %41 = load ptr, ptr %4, align 8
  %42 = call i32 @fputs(ptr noundef @.str.38, ptr noundef %41)
  %43 = load i8, ptr %5, align 1, !range !4, !noundef !5
  %44 = trunc i8 %43 to i1
  br i1 %44, label %60, label %45

45:                                               ; preds = %40
  %46 = load ptr, ptr %3, align 8
  %47 = getelementptr inbounds nuw %struct.printTableContent, ptr %46, i32 0, i32 1
  %48 = load ptr, ptr %47, align 8
  %49 = icmp ne ptr %48, null
  br i1 %49, label %50, label %60

50:                                               ; preds = %45
  %51 = load ptr, ptr %4, align 8
  %52 = call i32 @fputs(ptr noundef @.str.6, ptr noundef %51)
  %53 = load ptr, ptr %3, align 8
  %54 = getelementptr inbounds nuw %struct.printTableContent, ptr %53, i32 0, i32 1
  %55 = load ptr, ptr %54, align 8
  %56 = load ptr, ptr %4, align 8
  %57 = call i32 @fputs(ptr noundef %55, ptr noundef %56)
  %58 = load ptr, ptr %4, align 8
  %59 = call i32 @fputs(ptr noundef @.str.38, ptr noundef %58)
  br label %60

60:                                               ; preds = %50, %45, %40
  %61 = load ptr, ptr %4, align 8
  %62 = call i32 @fputs(ptr noundef @.str.67, ptr noundef %61)
  %63 = load i16, ptr %6, align 2
  %64 = zext i16 %63 to i32
  switch i32 %64, label %74 [
    i32 0, label %65
    i32 1, label %68
    i32 2, label %71
  ]

65:                                               ; preds = %60
  %66 = load ptr, ptr %4, align 8
  %67 = call i32 @fputs(ptr noundef @.str.68, ptr noundef %66)
  br label %74

68:                                               ; preds = %60
  %69 = load ptr, ptr %4, align 8
  %70 = call i32 @fputs(ptr noundef @.str.69, ptr noundef %69)
  br label %74

71:                                               ; preds = %60
  %72 = load ptr, ptr %4, align 8
  %73 = call i32 @fputs(ptr noundef @.str.70, ptr noundef %72)
  br label %74

74:                                               ; preds = %60, %71, %68, %65
  %75 = load ptr, ptr %4, align 8
  %76 = call i32 @fputs(ptr noundef @.str.71, ptr noundef %75)
  %77 = load ptr, ptr %4, align 8
  %78 = call i32 @fputs(ptr noundef @.str.72, ptr noundef %77)
  br label %79

79:                                               ; preds = %74, %33
  store i32 0, ptr %8, align 4
  %80 = load ptr, ptr %3, align 8
  %81 = getelementptr inbounds nuw %struct.printTableContent, ptr %80, i32 0, i32 6
  %82 = load ptr, ptr %81, align 8
  store ptr %82, ptr %9, align 8
  br label %83

83:                                               ; preds = %160, %79
  %84 = load ptr, ptr %9, align 8
  %85 = load ptr, ptr %84, align 8
  %86 = icmp ne ptr %85, null
  br i1 %86, label %87, label %165

87:                                               ; preds = %83
  %88 = load i32, ptr %8, align 4
  %89 = load ptr, ptr %3, align 8
  %90 = getelementptr inbounds nuw %struct.printTableContent, ptr %89, i32 0, i32 2
  %91 = load i32, ptr %90, align 8
  %92 = urem i32 %88, %91
  %93 = icmp eq i32 %92, 0
  br i1 %93, label %94, label %110

94:                                               ; preds = %87
  %95 = load volatile i32, ptr @cancel_pressed, align 4
  %96 = icmp ne i32 %95, 0
  br i1 %96, label %97, label %98

97:                                               ; preds = %94
  br label %165

98:                                               ; preds = %94
  %99 = load i8, ptr %5, align 1, !range !4, !noundef !5
  %100 = trunc i8 %99 to i1
  br i1 %100, label %106, label %101

101:                                              ; preds = %98
  %102 = load ptr, ptr %4, align 8
  %103 = load i64, ptr %7, align 8
  %104 = add i64 %103, 1
  store i64 %104, ptr %7, align 8
  %105 = call i32 (ptr, ptr, ...) @pg_fprintf(ptr noundef %102, ptr noundef @.str.73, i64 noundef %103)
  br label %109

106:                                              ; preds = %98
  %107 = load ptr, ptr %4, align 8
  %108 = call i32 @fputs(ptr noundef @.str.74, ptr noundef %107)
  br label %109

109:                                              ; preds = %106, %101
  br label %110

110:                                              ; preds = %109, %87
  %111 = load ptr, ptr %4, align 8
  %112 = call i32 @fputs(ptr noundef @.str.75, ptr noundef %111)
  %113 = load ptr, ptr %3, align 8
  %114 = getelementptr inbounds nuw %struct.printTableContent, ptr %113, i32 0, i32 4
  %115 = load ptr, ptr %114, align 8
  %116 = load i32, ptr %8, align 4
  %117 = load ptr, ptr %3, align 8
  %118 = getelementptr inbounds nuw %struct.printTableContent, ptr %117, i32 0, i32 2
  %119 = load i32, ptr %118, align 8
  %120 = urem i32 %116, %119
  %121 = zext i32 %120 to i64
  %122 = getelementptr inbounds nuw ptr, ptr %115, i64 %121
  %123 = load ptr, ptr %122, align 8
  %124 = load ptr, ptr %4, align 8
  call void @asciidoc_escaped_print(ptr noundef %123, ptr noundef %124)
  %125 = load ptr, ptr %4, align 8
  %126 = load ptr, ptr %3, align 8
  %127 = getelementptr inbounds nuw %struct.printTableContent, ptr %126, i32 0, i32 12
  %128 = load ptr, ptr %127, align 8
  %129 = load i32, ptr %8, align 4
  %130 = load ptr, ptr %3, align 8
  %131 = getelementptr inbounds nuw %struct.printTableContent, ptr %130, i32 0, i32 2
  %132 = load i32, ptr %131, align 8
  %133 = urem i32 %129, %132
  %134 = zext i32 %133 to i64
  %135 = getelementptr inbounds nuw i8, ptr %128, i64 %134
  %136 = load i8, ptr %135, align 1
  %137 = sext i8 %136 to i32
  %138 = icmp eq i32 %137, 114
  %139 = select i1 %138, ptr @.str.77, ptr @.str.78
  %140 = call i32 (ptr, ptr, ...) @pg_fprintf(ptr noundef %125, ptr noundef @.str.76, ptr noundef %139)
  %141 = load ptr, ptr %9, align 8
  %142 = load ptr, ptr %141, align 8
  %143 = load ptr, ptr %9, align 8
  %144 = load ptr, ptr %143, align 8
  %145 = call i64 @strspn(ptr noundef %144, ptr noundef @.str.56) #9
  %146 = getelementptr inbounds nuw i8, ptr %142, i64 %145
  %147 = load i8, ptr %146, align 1
  %148 = sext i8 %147 to i32
  %149 = icmp eq i32 %148, 0
  br i1 %149, label %150, label %153

150:                                              ; preds = %110
  %151 = load ptr, ptr %4, align 8
  %152 = call i32 @fputs(ptr noundef @.str.5, ptr noundef %151)
  br label %157

153:                                              ; preds = %110
  %154 = load ptr, ptr %9, align 8
  %155 = load ptr, ptr %154, align 8
  %156 = load ptr, ptr %4, align 8
  call void @asciidoc_escaped_print(ptr noundef %155, ptr noundef %156)
  br label %157

157:                                              ; preds = %153, %150
  %158 = load ptr, ptr %4, align 8
  %159 = call i32 @fputs(ptr noundef @.str.38, ptr noundef %158)
  br label %160

160:                                              ; preds = %157
  %161 = load i32, ptr %8, align 4
  %162 = add i32 %161, 1
  store i32 %162, ptr %8, align 4
  %163 = load ptr, ptr %9, align 8
  %164 = getelementptr inbounds nuw ptr, ptr %163, i32 1
  store ptr %164, ptr %9, align 8
  br label %83, !llvm.loop !48

165:                                              ; preds = %97, %83
  %166 = load ptr, ptr %4, align 8
  %167 = call i32 @fputs(ptr noundef @.str.72, ptr noundef %166)
  %168 = load ptr, ptr %3, align 8
  %169 = getelementptr inbounds nuw %struct.printTableContent, ptr %168, i32 0, i32 0
  %170 = load ptr, ptr %169, align 8
  %171 = getelementptr inbounds nuw %struct.printTableOpt, ptr %170, i32 0, i32 9
  %172 = load i8, ptr %171, align 2, !range !4, !noundef !5
  %173 = trunc i8 %172 to i1
  br i1 %173, label %174, label %210

174:                                              ; preds = %165
  %175 = load i8, ptr %5, align 1, !range !4, !noundef !5
  %176 = trunc i8 %175 to i1
  br i1 %176, label %209, label %177

177:                                              ; preds = %174
  %178 = load ptr, ptr %3, align 8
  %179 = getelementptr inbounds nuw %struct.printTableContent, ptr %178, i32 0, i32 10
  %180 = load ptr, ptr %179, align 8
  %181 = icmp ne ptr %180, null
  br i1 %181, label %182, label %209

182:                                              ; preds = %177
  %183 = load volatile i32, ptr @cancel_pressed, align 4
  %184 = icmp ne i32 %183, 0
  br i1 %184, label %209, label %185

185:                                              ; preds = %182
  call void @llvm.lifetime.start.p0(i64 8, ptr %11) #8
  %186 = load ptr, ptr %4, align 8
  %187 = call i32 @fputs(ptr noundef @.str.79, ptr noundef %186)
  %188 = load ptr, ptr %3, align 8
  %189 = getelementptr inbounds nuw %struct.printTableContent, ptr %188, i32 0, i32 10
  %190 = load ptr, ptr %189, align 8
  store ptr %190, ptr %11, align 8
  br label %191

191:                                              ; preds = %202, %185
  %192 = load ptr, ptr %11, align 8
  %193 = icmp ne ptr %192, null
  br i1 %193, label %194, label %206

194:                                              ; preds = %191
  %195 = load ptr, ptr %11, align 8
  %196 = getelementptr inbounds nuw %struct.printTableFooter, ptr %195, i32 0, i32 0
  %197 = load ptr, ptr %196, align 8
  %198 = load ptr, ptr %4, align 8
  %199 = call i32 @fputs(ptr noundef %197, ptr noundef %198)
  %200 = load ptr, ptr %4, align 8
  %201 = call i32 @fputs(ptr noundef @.str.38, ptr noundef %200)
  br label %202

202:                                              ; preds = %194
  %203 = load ptr, ptr %11, align 8
  %204 = getelementptr inbounds nuw %struct.printTableFooter, ptr %203, i32 0, i32 1
  %205 = load ptr, ptr %204, align 8
  store ptr %205, ptr %11, align 8
  br label %191, !llvm.loop !49

206:                                              ; preds = %191
  %207 = load ptr, ptr %4, align 8
  %208 = call i32 @fputs(ptr noundef @.str.80, ptr noundef %207)
  call void @llvm.lifetime.end.p0(i64 8, ptr %11) #8
  br label %209

209:                                              ; preds = %206, %182, %177, %174
  br label %210

210:                                              ; preds = %209, %165
  store i32 0, ptr %10, align 4
  br label %211

211:                                              ; preds = %210, %32
  call void @llvm.lifetime.end.p0(i64 8, ptr %9) #8
  call void @llvm.lifetime.end.p0(i64 4, ptr %8) #8
  call void @llvm.lifetime.end.p0(i64 8, ptr %7) #8
  call void @llvm.lifetime.end.p0(i64 2, ptr %6) #8
  call void @llvm.lifetime.end.p0(i64 1, ptr %5) #8
  %212 = load i32, ptr %10, align 4
  switch i32 %212, label %214 [
    i32 0, label %213
    i32 1, label %213
  ]

213:                                              ; preds = %211, %211
  ret void

214:                                              ; preds = %211
  unreachable
}