; Function Attrs: nounwind uwtable
define internal fastcc void @print_asciidoc_vertical(ptr noundef readonly captures(none) %0, ptr noundef %1) unnamed_addr #3 {
  %3 = load ptr, ptr %0, align 8
  %4 = getelementptr inbounds nuw i8, ptr %3, i64 24
  %5 = load i8, ptr %4, align 8, !range !6, !noundef !7
  %6 = trunc nuw i8 %5 to i1
  %7 = getelementptr inbounds nuw i8, ptr %3, i64 16
  %8 = load i16, ptr %7, align 8
  %9 = getelementptr inbounds nuw i8, ptr %3, i64 32
  %10 = load i64, ptr %9, align 8
  %11 = add i64 %10, 1
  %12 = load volatile i32, ptr @cancel_pressed, align 4
  %.not = icmp eq i32 %12, 0
  br i1 %.not, label %13, label %113

13:                                               ; preds = %2
  %14 = getelementptr inbounds nuw i8, ptr %3, i64 25
  %15 = load i8, ptr %14, align 1, !range !6, !noundef !7
  %16 = trunc nuw i8 %15 to i1
  br i1 %16, label %17, label %35

17:                                               ; preds = %13
  %fputc = tail call i32 @fputc(i32 10, ptr %1)
  br i1 %6, label %24, label %18

18:                                               ; preds = %17
  %19 = getelementptr inbounds nuw i8, ptr %0, i64 8
  %20 = load ptr, ptr %19, align 8
  %.not57 = icmp eq ptr %20, null
  br i1 %.not57, label %24, label %21

21:                                               ; preds = %18
  %fputc58 = tail call i32 @fputc(i32 46, ptr %1)
  %22 = load ptr, ptr %19, align 8
  %23 = tail call i32 @fputs(ptr noundef %22, ptr noundef %1)
  %fputc59 = tail call i32 @fputc(i32 10, ptr %1)
  br label %24

24:                                               ; preds = %21, %18, %17
  %25 = tail call i64 @fwrite(ptr nonnull @.str.67, i64 11, i64 1, ptr %1)
  switch i16 %8, label %32 [
    i16 0, label %26
    i16 1, label %28
    i16 2, label %30
  ]

26:                                               ; preds = %24
  %27 = tail call i64 @fwrite(ptr nonnull @.str.68, i64 25, i64 1, ptr %1)
  br label %32

28:                                               ; preds = %24
  %29 = tail call i64 @fwrite(ptr nonnull @.str.69, i64 13, i64 1, ptr %1)
  br label %32

30:                                               ; preds = %24
  %31 = tail call i64 @fwrite(ptr nonnull @.str.70, i64 23, i64 1, ptr %1)
  br label %32

32:                                               ; preds = %30, %28, %26, %24
  %33 = tail call i64 @fwrite(ptr nonnull @.str.71, i64 2, i64 1, ptr %1)
  %34 = tail call i64 @fwrite(ptr nonnull @.str.72, i64 6, i64 1, ptr %1)
  br label %35

35:                                               ; preds = %32, %13
  %36 = getelementptr inbounds nuw i8, ptr %0, i64 40
  %37 = load ptr, ptr %36, align 8
  %38 = load ptr, ptr %37, align 8
  %.not6071 = icmp eq ptr %38, null
  br i1 %.not6071, label %._crit_edge, label %.lr.ph

.lr.ph:                                           ; preds = %35
  %39 = getelementptr inbounds nuw i8, ptr %0, i64 16
  %40 = getelementptr inbounds nuw i8, ptr %0, i64 24
  %41 = getelementptr inbounds nuw i8, ptr %0, i64 88
  br label %42

42:                                               ; preds = %.lr.ph, %asciidoc_escaped_print.exit70
  %.05474 = phi ptr [ %37, %.lr.ph ], [ %95, %asciidoc_escaped_print.exit70 ]
  %.05573 = phi i32 [ 0, %.lr.ph ], [ %94, %asciidoc_escaped_print.exit70 ]
  %.05672 = phi i64 [ %11, %.lr.ph ], [ %.1, %asciidoc_escaped_print.exit70 ]
  %43 = load i32, ptr %39, align 8
  %44 = urem i32 %.05573, %43
  %45 = icmp eq i32 %44, 0
  br i1 %45, label %46, label %54

46:                                               ; preds = %42
  %47 = load volatile i32, ptr @cancel_pressed, align 4
  %.not61 = icmp eq i32 %47, 0
  br i1 %.not61, label %48, label %._crit_edge

48:                                               ; preds = %46
  br i1 %6, label %52, label %49

49:                                               ; preds = %48
  %50 = add i64 %.05672, 1
  %51 = tail call i32 (ptr, ptr, ...) @pg_fprintf(ptr noundef %1, ptr noundef nonnull @.str.73, i64 noundef %.05672) #19
  br label %54

52:                                               ; preds = %48
  %53 = tail call i64 @fwrite(ptr nonnull @.str.74, i64 4, i64 1, ptr %1)
  br label %54

54:                                               ; preds = %49, %52, %42
  %.1 = phi i64 [ %.05672, %52 ], [ %50, %49 ], [ %.05672, %42 ]
  %55 = tail call i64 @fwrite(ptr nonnull @.str.75, i64 3, i64 1, ptr %1)
  %56 = load ptr, ptr %40, align 8
  %57 = load i32, ptr %39, align 8
  %58 = urem i32 %.05573, %57
  %59 = zext i32 %58 to i64
  %60 = getelementptr inbounds nuw ptr, ptr %56, i64 %59
  %61 = load ptr, ptr %60, align 8
  br label %62

62:                                               ; preds = %69, %54
  %.0.i = phi ptr [ %61, %54 ], [ %70, %69 ]
  %63 = load i8, ptr %.0.i, align 1
  switch i8 %63, label %66 [
    i8 0, label %asciidoc_escaped_print.exit
    i8 124, label %64
  ]

64:                                               ; preds = %62
  %65 = tail call i64 @fwrite(ptr nonnull @.str.81, i64 2, i64 1, ptr %1)
  br label %69

66:                                               ; preds = %62
  %67 = sext i8 %63 to i32
  %68 = tail call i32 @fputc(i32 noundef %67, ptr noundef %1)
  br label %69

69:                                               ; preds = %66, %64
  %70 = getelementptr inbounds nuw i8, ptr %.0.i, i64 1
  br label %62, !llvm.loop !47

asciidoc_escaped_print.exit:                      ; preds = %62
  %71 = load ptr, ptr %41, align 8
  %72 = load i32, ptr %39, align 8
  %73 = urem i32 %.05573, %72
  %74 = zext i32 %73 to i64
  %75 = getelementptr inbounds nuw i8, ptr %71, i64 %74
  %76 = load i8, ptr %75, align 1
  %77 = icmp eq i8 %76, 114
  %78 = select i1 %77, ptr @.str.77, ptr @.str.78
  %79 = tail call i32 (ptr, ptr, ...) @pg_fprintf(ptr noundef %1, ptr noundef nonnull @.str.76, ptr noundef nonnull %78) #19
  %80 = load ptr, ptr %.05474, align 8
  %81 = tail call i64 @strspn(ptr noundef %80, ptr noundef nonnull @.str.56) #20
  %82 = getelementptr inbounds nuw i8, ptr %80, i64 %81
  %83 = load i8, ptr %82, align 1
  %84 = icmp eq i8 %83, 0
  br i1 %84, label %85, label %.preheader

85:                                               ; preds = %asciidoc_escaped_print.exit
  %fputc62 = tail call i32 @fputc(i32 32, ptr %1)
  br label %asciidoc_escaped_print.exit70

.preheader:                                       ; preds = %asciidoc_escaped_print.exit, %92
  %.0.i69 = phi ptr [ %93, %92 ], [ %80, %asciidoc_escaped_print.exit ]
  %86 = load i8, ptr %.0.i69, align 1
  switch i8 %86, label %89 [
    i8 0, label %asciidoc_escaped_print.exit70
    i8 124, label %87
  ]

87:                                               ; preds = %.preheader
  %88 = tail call i64 @fwrite(ptr nonnull @.str.81, i64 2, i64 1, ptr %1)
  br label %92

89:                                               ; preds = %.preheader
  %90 = sext i8 %86 to i32
  %91 = tail call i32 @fputc(i32 noundef %90, ptr noundef %1)
  br label %92

92:                                               ; preds = %89, %87
  %93 = getelementptr inbounds nuw i8, ptr %.0.i69, i64 1
  br label %.preheader, !llvm.loop !47

asciidoc_escaped_print.exit70:                    ; preds = %.preheader, %85
  %fputc63 = tail call i32 @fputc(i32 10, ptr %1)
  %94 = add i32 %.05573, 1
  %95 = getelementptr inbounds nuw i8, ptr %.05474, i64 8
  %96 = load ptr, ptr %95, align 8
  %.not60 = icmp eq ptr %96, null
  br i1 %.not60, label %._crit_edge, label %42, !llvm.loop !48

._crit_edge:                                      ; preds = %asciidoc_escaped_print.exit70, %46, %35
  %97 = tail call i64 @fwrite(ptr nonnull @.str.72, i64 6, i64 1, ptr %1)
  %98 = load ptr, ptr %0, align 8
  %99 = getelementptr inbounds nuw i8, ptr %98, i64 26
  %100 = load i8, ptr %99, align 2, !range !6, !noundef !7
  %101 = trunc nuw i8 %100 to i1
  %.not68 = xor i1 %101, true
  %brmerge = select i1 %.not68, i1 true, i1 %6
  br i1 %brmerge, label %113, label %102

102:                                              ; preds = %._crit_edge
  %103 = getelementptr inbounds nuw i8, ptr %0, i64 72
  %104 = load ptr, ptr %103, align 8
  %.not64 = icmp eq ptr %104, null
  br i1 %.not64, label %113, label %105

105:                                              ; preds = %102
  %106 = load volatile i32, ptr @cancel_pressed, align 4
  %.not65 = icmp eq i32 %106, 0
  br i1 %.not65, label %107, label %113

107:                                              ; preds = %105
  %108 = tail call i64 @fwrite(ptr nonnull @.str.79, i64 6, i64 1, ptr %1)
  %.076 = load ptr, ptr %103, align 8
  %.not6677 = icmp eq ptr %.076, null
  br i1 %.not6677, label %._crit_edge81, label %.lr.ph80

.lr.ph80:                                         ; preds = %107, %.lr.ph80
  %.078 = phi ptr [ %.0, %.lr.ph80 ], [ %.076, %107 ]
  %109 = load ptr, ptr %.078, align 8
  %110 = tail call i32 @fputs(ptr noundef %109, ptr noundef %1)
  %fputc67 = tail call i32 @fputc(i32 10, ptr %1)
  %111 = getelementptr inbounds nuw i8, ptr %.078, i64 8
  %.0 = load ptr, ptr %111, align 8
  %.not66 = icmp eq ptr %.0, null
  br i1 %.not66, label %._crit_edge81, label %.lr.ph80, !llvm.loop !49

._crit_edge81:                                    ; preds = %.lr.ph80, %107
  %112 = tail call i64 @fwrite(ptr nonnull @.str.80, i64 5, i64 1, ptr %1)
  br label %113

113:                                              ; preds = %._crit_edge81, %105, %102, %._crit_edge, %2
  ret void
}